target datalayout = "e-m:e-p270:32:32-p271:32:32-p272:64:64-i64:64-i128:128-f80:128-n8:16:32:64-S128"
target triple = "x86_64-pc-linux-gnu"

; Function Attrs: nounwind uwtable
define dso_local void @bit_clear(ptr noundef %0, i64 noundef %1) #0 {
  %3 = alloca ptr, align 8
  %4 = alloca i64, align 8
  store ptr %0, ptr %3, align 8
  store i64 %1, ptr %4, align 8
  br label %5

5:                                                ; preds = %2
  br label %6

6:                                                ; preds = %5
  br label %7

7:                                                ; preds = %6
  br label %8

8:                                                ; preds = %7
  %9 = load i64, ptr %4, align 8
  %10 = and i64 %9, 63
  %11 = shl i64 1, %10
  %12 = xor i64 %11, -1
  %13 = load ptr, ptr %3, align 8
  %14 = load i64, ptr %4, align 8
  %15 = ashr i64 %14, 6
  %16 = add nsw i64 %15, 2
  %17 = getelementptr inbounds i64, ptr %13, i64 %16
  %18 = load i64, ptr %17, align 8
  %19 = and i64 %18, %12
  store i64 %19, ptr %17, align 8
  ret void
}

; Function Attrs: nounwind uwtable
define internal i64 @_ffsn(i64 noundef %0, i64 noundef %1) #0 {
  %3 = alloca i64, align 8
  %4 = alloca i64, align 8
  %5 = alloca i64, align 8
  %6 = alloca i32, align 4
  %7 = alloca i64, align 8
  store i64 %0, ptr %3, align 8
  store i64 %1, ptr %4, align 8
  call void @llvm.lifetime.start.p0(i64 8, ptr %5) #12
  store i64 4294967295, ptr %5, align 8
  call void @llvm.lifetime.start.p0(i64 4, ptr %6) #12
  store i32 32, ptr %6, align 4
  call void @llvm.lifetime.start.p0(i64 8, ptr %7) #12
  store i64 0, ptr %7, align 8
  br label %8

8:                                                ; preds = %40, %2
  %9 = load i32, ptr %6, align 4
  %10 = icmp ugt i32 %9, 0
  br i1 %10, label %11, label %41

11:                                               ; preds = %8
  %12 = load i64, ptr %4, align 8
  %13 = load i64, ptr %3, align 8
  %14 = load i64, ptr %5, align 8
  %15 = and i64 %13, %14
  %16 = call i64 @llvm.ctpop.i64(i64 %15)
  %17 = trunc i64 %16 to i32
  %18 = sext i32 %17 to i64
  %19 = icmp sgt i64 %12, %18
  br i1 %19, label %20, label %33

20:                                               ; preds = %11
  %21 = load i32, ptr %6, align 4
  %22 = zext i32 %21 to i64
  %23 = load i64, ptr %7, align 8
  %24 = add nsw i64 %23, %22
  store i64 %24, ptr %7, align 8
  %25 = load i32, ptr %6, align 4
  %26 = lshr i32 %25, 1
  store i32 %26, ptr %6, align 4
  %27 = load i64, ptr %5, align 8
  %28 = load i32, ptr %6, align 4
  %29 = zext i32 %28 to i64
  %30 = shl i64 %27, %29
  %31 = load i64, ptr %5, align 8
  %32 = or i64 %31, %30
  store i64 %32, ptr %5, align 8
  br label %40

33:                                               ; preds = %11
  %34 = load i32, ptr %6, align 4
  %35 = lshr i32 %34, 1
  store i32 %35, ptr %6, align 4
  %36 = load i32, ptr %6, align 4
  %37 = load i64, ptr %5, align 8
  %38 = zext i32 %36 to i64
  %39 = lshr i64 %37, %38
  store i64 %39, ptr %5, align 8
  br label %40

40:                                               ; preds = %33, %20
  br label %8, !llvm.loop !50

41:                                               ; preds = %8
  %42 = load i64, ptr %7, align 8
  call void @llvm.lifetime.end.p0(i64 8, ptr %7) #12
  call void @llvm.lifetime.end.p0(i64 4, ptr %6) #12
  call void @llvm.lifetime.end.p0(i64 8, ptr %5) #12
  ret i64 %42
}

; Function Attrs: nounwind uwtable
define dso_local void @bit_nclear(ptr noundef %0, i64 noundef %1, i64 noundef %2) #0 {
  %4 = alloca ptr, align 8
  %5 = alloca i64, align 8
  %6 = alloca i64, align 8
  store ptr %0, ptr %4, align 8
  store i64 %1, ptr %5, align 8
  store i64 %2, ptr %6, align 8
  br label %7

7:                                                ; preds = %3
  br label %8

8:                                                ; preds = %7
  br label %9

9:                                                ; preds = %8
  br label %10

10:                                               ; preds = %9
  br label %11

11:                                               ; preds = %10
  br label %12

12:                                               ; preds = %11
  br label %13

13:                                               ; preds = %23, %12
  %14 = load i64, ptr %5, align 8
  %15 = load i64, ptr %6, align 8
  %16 = icmp sle i64 %14, %15
  br i1 %16, label %17, label %21

17:                                               ; preds = %13
  %18 = load i64, ptr %5, align 8
  %19 = srem i64 %18, 8
  %20 = icmp sgt i64 %19, 0
  br label %21

21:                                               ; preds = %17, %13
  %22 = phi i1 [ false, %13 ], [ %20, %17 ]
  br i1 %22, label %23, label %27

23:                                               ; preds = %21
  %24 = load ptr, ptr %4, align 8
  %25 = load i64, ptr %5, align 8
  %26 = add nsw i64 %25, 1
  store i64 %26, ptr %5, align 8
  call void @bit_clear(ptr noundef %24, i64 noundef %25)
  br label %13, !llvm.loop !8

27:                                               ; preds = %21
  br label %28

28:                                               ; preds = %39, %27
  %29 = load i64, ptr %6, align 8
  %30 = load i64, ptr %5, align 8
  %31 = icmp sge i64 %29, %30
  br i1 %31, label %32, label %37

32:                                               ; preds = %28
  %33 = load i64, ptr %6, align 8
  %34 = add nsw i64 %33, 1
  %35 = srem i64 %34, 8
  %36 = icmp sgt i64 %35, 0
  br label %37

37:                                               ; preds = %32, %28
  %38 = phi i1 [ false, %28 ], [ %36, %32 ]
  br i1 %38, label %39, label %43

39:                                               ; preds = %37
  %40 = load ptr, ptr %4, align 8
  %41 = load i64, ptr %6, align 8
  %42 = add nsw i64 %41, -1
  store i64 %42, ptr %6, align 8
  call void @bit_clear(ptr noundef %40, i64 noundef %41)
  br label %28, !llvm.loop !11

43:                                               ; preds = %37
  %44 = load i64, ptr %6, align 8
  %45 = load i64, ptr %5, align 8
  %46 = icmp sgt i64 %44, %45
  br i1 %46, label %47, label %58

47:                                               ; preds = %43
  %48 = load ptr, ptr %4, align 8
  %49 = getelementptr inbounds i64, ptr %48, i64 2
  %50 = load i64, ptr %5, align 8
  %51 = ashr i64 %50, 3
  %52 = getelementptr inbounds i8, ptr %49, i64 %51
  %53 = load i64, ptr %6, align 8
  %54 = load i64, ptr %5, align 8
  %55 = sub nsw i64 %53, %54
  %56 = add nsw i64 %55, 1
  %57 = sdiv i64 %56, 8
  call void @llvm.memset.p0.i64(ptr align 1 %52, i8 0, i64 %57, i1 false)
  br label %58

58:                                               ; preds = %47, %43
  ret void
}

; Function Attrs: nounwind uwtable
define dso_local i64 @bit_nth_set(ptr noundef %0, i64 noundef %1) #0 {
  %3 = alloca i64, align 8
  %4 = alloca ptr, align 8
  %5 = alloca i64, align 8
  %6 = alloca i64, align 8
  %7 = alloca i64, align 8
  %8 = alloca i64, align 8
  %9 = alloca i64, align 8
  %10 = alloca i64, align 8
  %11 = alloca i32, align 4
  %12 = alloca i32, align 4
  %13 = alloca i32, align 4
  %14 = alloca i32, align 4
  store ptr %0, ptr %4, align 8
  store i64 %1, ptr %5, align 8
  call void @llvm.lifetime.start.p0(i64 8, ptr %6) #12
  call void @llvm.lifetime.start.p0(i64 8, ptr %7) #12
  call void @llvm.lifetime.start.p0(i64 8, ptr %8) #12
  call void @llvm.lifetime.start.p0(i64 8, ptr %9) #12
  store i64 -1, ptr %9, align 8
  call void @llvm.lifetime.start.p0(i64 8, ptr %10) #12
  store i64 -1, ptr %10, align 8
  call void @llvm.lifetime.start.p0(i64 4, ptr %11) #12
  call void @llvm.lifetime.start.p0(i64 4, ptr %12) #12
  call void @llvm.lifetime.start.p0(i64 4, ptr %13) #12
  br label %15

15:                                               ; preds = %2
  br label %16

16:                                               ; preds = %15
  br label %17

17:                                               ; preds = %16
  %18 = load i64, ptr %5, align 8
  %19 = icmp sle i64 %18, 0
  br i1 %19, label %20, label %21

20:                                               ; preds = %17
  store i64 -1, ptr %3, align 8
  store i32 1, ptr %14, align 4
  br label %113

21:                                               ; preds = %17
  %22 = load ptr, ptr %4, align 8
  %23 = getelementptr inbounds i64, ptr %22, i64 1
  %24 = load i64, ptr %23, align 8
  store i64 %24, ptr %7, align 8
  %25 = load i64, ptr %7, align 8
  %26 = ashr i64 %25, 6
  %27 = add nsw i64 %26, 2
  %28 = trunc i64 %27 to i32
  store i32 %28, ptr %13, align 4
  store i64 -1, ptr %8, align 8
  store i64 0, ptr %6, align 8
  br label %29

29:                                               ; preds = %72, %21
  %30 = load i64, ptr %6, align 8
  %31 = load i64, ptr %7, align 8
  %32 = icmp slt i64 %30, %31
  br i1 %32, label %33, label %75

33:                                               ; preds = %29
  %34 = load i64, ptr %6, align 8
  %35 = ashr i64 %34, 6
  %36 = add nsw i64 %35, 2
  %37 = load i32, ptr %13, align 4
  %38 = zext i32 %37 to i64
  %39 = icmp eq i64 %36, %38
  br i1 %39, label %40, label %45

40:                                               ; preds = %33
  %41 = load i64, ptr %7, align 8
  %42 = and i64 %41, 63
  %43 = shl i64 1, %42
  %44 = sub nsw i64 %43, 1
  store i64 %44, ptr %9, align 8
  br label %45

45:                                               ; preds = %40, %33
  %46 = load ptr, ptr %4, align 8
  %47 = load i64, ptr %6, align 8
  %48 = ashr i64 %47, 6
  %49 = add nsw i64 %48, 2
  %50 = getelementptr inbounds i64, ptr %46, i64 %49
  %51 = load i64, ptr %50, align 8
  %52 = load i64, ptr %9, align 8
  %53 = and i64 %51, %52
  %54 = call i64 @llvm.ctpop.i64(i64 %53)
  %55 = trunc i64 %54 to i32
  store i32 %55, ptr %11, align 4
  %56 = load i32, ptr %11, align 4
  %57 = icmp ugt i32 %56, 0
  br i1 %57, label %58, label %61

58:                                               ; preds = %45
  %59 = load i64, ptr %6, align 8
  store i64 %59, ptr %8, align 8
  %60 = load i32, ptr %11, align 4
  store i32 %60, ptr %12, align 4
  br label %61

61:                                               ; preds = %58, %45
  %62 = load i64, ptr %5, align 8
  %63 = load i32, ptr %11, align 4
  %64 = zext i32 %63 to i64
  %65 = icmp sle i64 %62, %64
  br i1 %65, label %66, label %67

66:                                               ; preds = %61
  br label %75

67:                                               ; preds = %61
  %68 = load i32, ptr %11, align 4
  %69 = zext i32 %68 to i64
  %70 = load i64, ptr %5, align 8
  %71 = sub nsw i64 %70, %69
  store i64 %71, ptr %5, align 8
  br label %72

72:                                               ; preds = %67
  %73 = load i64, ptr %6, align 8
  %74 = add i64 %73, 64
  store i64 %74, ptr %6, align 8
  br label %29, !llvm.loop !49

75:                                               ; preds = %66, %29
  %76 = load i64, ptr %8, align 8
  %77 = icmp slt i64 %76, 0
  br i1 %77, label %78, label %79

78:                                               ; preds = %75
  store i64 -1, ptr %3, align 8
  store i32 1, ptr %14, align 4
  br label %113

79:                                               ; preds = %75
  %80 = load i64, ptr %8, align 8
  %81 = ashr i64 %80, 6
  %82 = add nsw i64 %81, 2
  %83 = load i32, ptr %13, align 4
  %84 = zext i32 %83 to i64
  %85 = icmp eq i64 %82, %84
  br i1 %85, label %86, label %91

86:                                               ; preds = %79
  %87 = load i64, ptr %7, align 8
  %88 = and i64 %87, 63
  %89 = shl i64 1, %88
  %90 = sub nsw i64 %89, 1
  store i64 %90, ptr %10, align 8
  br label %91

91:                                               ; preds = %86, %79
  %92 = load i64, ptr %8, align 8
  %93 = load ptr, ptr %4, align 8
  %94 = load i64, ptr %8, align 8
  %95 = ashr i64 %94, 6
  %96 = add nsw i64 %95, 2
  %97 = getelementptr inbounds i64, ptr %93, i64 %96
  %98 = load i64, ptr %97, align 8
  %99 = load i64, ptr %10, align 8
  %100 = and i64 %98, %99
  %101 = load i64, ptr %8, align 8
  %102 = load i64, ptr %6, align 8
  %103 = icmp eq i64 %101, %102
  br i1 %103, label %104, label %106

104:                                              ; preds = %91
  %105 = load i64, ptr %5, align 8
  br label %109

106:                                              ; preds = %91
  %107 = load i32, ptr %12, align 4
  %108 = zext i32 %107 to i64
  br label %109

109:                                              ; preds = %106, %104
  %110 = phi i64 [ %105, %104 ], [ %108, %106 ]
  %111 = call i64 @_ffsn(i64 noundef %100, i64 noundef %110)
  %112 = add nsw i64 %92, %111
  store i64 %112, ptr %3, align 8
  store i32 1, ptr %14, align 4
  br label %113

113:                                              ; preds = %109, %78, %20
  call void @llvm.lifetime.end.p0(i64 4, ptr %13) #12
  call void @llvm.lifetime.end.p0(i64 4, ptr %12) #12
  call void @llvm.lifetime.end.p0(i64 4, ptr %11) #12
  call void @llvm.lifetime.end.p0(i64 8, ptr %10) #12
  call void @llvm.lifetime.end.p0(i64 8, ptr %9) #12
  call void @llvm.lifetime.end.p0(i64 8, ptr %8) #12
  call void @llvm.lifetime.end.p0(i64 8, ptr %7) #12
  call void @llvm.lifetime.end.p0(i64 8, ptr %6) #12
  %114 = load i64, ptr %3, align 8
  ret i64 %114
}

; Function Attrs: nounwind uwtable
define dso_local void @bit_pick_firstn(ptr noundef %0, i64 noundef %1) #0 {
  %3 = alloca ptr, align 8
  %4 = alloca i64, align 8
  %5 = alloca i64, align 8
  %6 = alloca i32, align 4
  store ptr %0, ptr %3, align 8
  store i64 %1, ptr %4, align 8
  br label %7

7:                                                ; preds = %2
  br label %8

8:                                                ; preds = %7
  call void @llvm.lifetime.start.p0(i64 8, ptr %5) #12
  %9 = load ptr, ptr %3, align 8
  %10 = load i64, ptr %4, align 8
  %11 = call i64 @bit_nth_set(ptr noundef %9, i64 noundef %10)
  store i64 %11, ptr %5, align 8
  %12 = load i64, ptr %5, align 8
  %13 = add nsw i64 %12, 1
  %14 = load ptr, ptr %3, align 8
  %15 = getelementptr inbounds i64, ptr %14, i64 1
  %16 = load i64, ptr %15, align 8
  %17 = icmp eq i64 %13, %16
  br i1 %17, label %21, label %18

18:                                               ; preds = %8
  %19 = load i64, ptr %5, align 8
  %20 = icmp slt i64 %19, 0
  br i1 %20, label %21, label %22

21:                                               ; preds = %18, %8
  store i32 1, ptr %6, align 4
  br label %30

22:                                               ; preds = %18
  %23 = load ptr, ptr %3, align 8
  %24 = load i64, ptr %5, align 8
  %25 = add nsw i64 %24, 1
  %26 = load ptr, ptr %3, align 8
  %27 = getelementptr inbounds i64, ptr %26, i64 1
  %28 = load i64, ptr %27, align 8
  %29 = sub nsw i64 %28, 1
  call void @bit_nclear(ptr noundef %23, i64 noundef %25, i64 noundef %29)
  store i32 0, ptr %6, align 4
  br label %30

30:                                               ; preds = %22, %21
  call void @llvm.lifetime.end.p0(i64 8, ptr %5) #12
  %31 = load i32, ptr %6, align 4
  switch i32 %31, label %33 [
    i32 0, label %32
    i32 1, label %32
  ]

32:                                               ; preds = %30, %30
  ret void

33:                                               ; preds = %30
  unreachable
}