; Function Attrs: nofree norecurse nosync nounwind memory(argmem: readwrite) uwtable
define dso_local void @bit_pick_firstn(ptr noundef captures(none) %0, i64 noundef %1) local_unnamed_addr #2 {
  %3 = icmp slt i64 %1, 1
  br i1 %3, label %bit_nclear.exit, label %4

4:                                                ; preds = %2
  %5 = getelementptr inbounds nuw i8, ptr %0, i64 8
  %6 = load i64, ptr %5, align 8
  %7 = icmp sgt i64 %6, 0
  br i1 %7, label %.lr.ph.i, label %bit_nclear.exit

.lr.ph.i:                                         ; preds = %4
  %8 = lshr i64 %6, 6
  %9 = add nuw nsw i64 %8, 2
  %10 = and i64 %9, 4294967295
  %11 = and i64 %6, 63
  %notmask.i = shl nsw i64 -1, %11
  %12 = xor i64 %notmask.i, -1
  br label %13

13:                                               ; preds = %22, %.lr.ph.i
  %.03150.i = phi i32 [ undef, %.lr.ph.i ], [ %.2.i, %22 ]
  %.03249.i = phi i64 [ %1, %.lr.ph.i ], [ %23, %22 ]
  %.03448.i = phi i64 [ -1, %.lr.ph.i ], [ %.135.i, %22 ]
  %.03647.i = phi i64 [ -1, %.lr.ph.i ], [ %.238.i, %22 ]
  %.03946.i = phi i64 [ 0, %.lr.ph.i ], [ %24, %22 ]
  %14 = ashr exact i64 %.03946.i, 6
  %15 = add nsw i64 %14, 2
  %16 = icmp eq i64 %15, %10
  %.135.i = select i1 %16, i64 %12, i64 %.03448.i
  %17 = getelementptr inbounds i64, ptr %0, i64 %15
  %18 = load i64, ptr %17, align 8
  %19 = and i64 %.135.i, %18
  %20 = tail call range(i64 0, 65) i64 @llvm.ctpop.i64(i64 %19)
  %.not.i = icmp eq i64 %19, 0
  %21 = trunc nuw nsw i64 %20 to i32
  %.238.i = select i1 %.not.i, i64 %.03647.i, i64 %.03946.i
  %.2.i = select i1 %.not.i, i32 %.03150.i, i32 %21
  %.not44.i = icmp sgt i64 %.03249.i, %20
  br i1 %.not44.i, label %22, label %._crit_edge.i

22:                                               ; preds = %13
  %23 = sub nsw i64 %.03249.i, %20
  %24 = add i64 %.03946.i, 64
  %25 = icmp slt i64 %24, %6
  br i1 %25, label %13, label %._crit_edge.i, !llvm.loop !47

._crit_edge.i:                                    ; preds = %22, %13
  %.039.lcssa.ph.i = phi i64 [ %24, %22 ], [ %.03946.i, %13 ]
  %.032.lcssa.ph.i = phi i64 [ %23, %22 ], [ %.03249.i, %13 ]
  %26 = icmp slt i64 %.238.i, 0
  br i1 %26, label %bit_nclear.exit, label %27

27:                                               ; preds = %._crit_edge.i
  %28 = zext i32 %.2.i to i64
  %29 = lshr i64 %.238.i, 6
  %30 = add nuw nsw i64 %29, 2
  %31 = icmp eq i64 %30, %10
  %.033.i = select i1 %31, i64 %12, i64 -1
  %32 = getelementptr inbounds nuw i64, ptr %0, i64 %30
  %33 = load i64, ptr %32, align 8
  %34 = and i64 %33, %.033.i
  %35 = icmp eq i64 %.238.i, %.039.lcssa.ph.i
  %36 = select i1 %35, i64 %.032.lcssa.ph.i, i64 %28
  br label %37

37:                                               ; preds = %52, %27
  %.020.i.i = phi i64 [ 0, %27 ], [ %.1.i.i, %52 ]
  %.01419.i.i = phi i32 [ 32, %27 ], [ %.115.i.i, %52 ]
  %.01618.i.i = phi i64 [ 4294967295, %27 ], [ %.117.i.i, %52 ]
  %38 = and i64 %34, %.01618.i.i
  %39 = tail call range(i64 0, 65) i64 @llvm.ctpop.i64(i64 %38)
  %40 = icmp sgt i64 %36, %39
  br i1 %40, label %41, label %48

41:                                               ; preds = %37
  %42 = zext i32 %.01419.i.i to i64
  %43 = add nsw i64 %.020.i.i, %42
  %44 = lshr i32 %.01419.i.i, 1
  %45 = zext nneg i32 %44 to i64
  %46 = shl i64 %.01618.i.i, %45
  %47 = or i64 %46, %.01618.i.i
  br label %52

48:                                               ; preds = %37
  %49 = lshr i32 %.01419.i.i, 1
  %50 = zext nneg i32 %49 to i64
  %51 = lshr i64 %.01618.i.i, %50
  br label %52

52:                                               ; preds = %48, %41
  %.117.i.i = phi i64 [ %47, %41 ], [ %51, %48 ]
  %.115.i.i = phi i32 [ %44, %41 ], [ %49, %48 ]
  %.1.i.i = phi i64 [ %43, %41 ], [ %.020.i.i, %48 ]
  %.not.i.i = icmp eq i32 %.115.i.i, 0
  br i1 %.not.i.i, label %bit_nth_set.exit, label %37, !llvm.loop !48

bit_nth_set.exit:                                 ; preds = %52
  %53 = add nsw i64 %.1.i.i, %.238.i
  %54 = add nsw i64 %53, 1
  %55 = icmp eq i64 %54, %6
  %56 = icmp slt i64 %53, 0
  %or.cond = or i1 %56, %55
  br i1 %or.cond, label %bit_nclear.exit, label %57

57:                                               ; preds = %bit_nth_set.exit
  %58 = add nsw i64 %6, -1
  %invariant.gep.i = getelementptr i8, ptr %0, i64 16
  %.not20.i = icmp slt i64 %53, %58
  %59 = and i64 %54, 7
  %60 = icmp ne i64 %59, 0
  %or.cond21.i = and i1 %60, %.not20.i
  br i1 %or.cond21.i, label %.lr.ph.i9, label %.critedge.preheader.i

.critedge.preheader.i:                            ; preds = %.lr.ph.i9, %57
  %.017.lcssa.i = phi i64 [ %54, %57 ], [ %61, %.lr.ph.i9 ]
  %.not1825.i.not = icmp sgt i64 %6, %.017.lcssa.i
  br i1 %.not1825.i.not, label %.lr.ph27.i, label %.critedge2.i

.lr.ph.i9:                                        ; preds = %57, %.lr.ph.i9
  %.01722.i = phi i64 [ %61, %.lr.ph.i9 ], [ %54, %57 ]
  %61 = add nuw nsw i64 %.01722.i, 1
  %62 = and i64 %.01722.i, 63
  %63 = shl nuw i64 1, %62
  %64 = xor i64 %63, -1
  %65 = lshr i64 %.01722.i, 6
  %gep.i = getelementptr i64, ptr %invariant.gep.i, i64 %65
  %66 = load i64, ptr %gep.i, align 8
  %67 = and i64 %66, %64
  store i64 %67, ptr %gep.i, align 8
  %.not.i10 = icmp slt i64 %.01722.i, %58
  %68 = and i64 %61, 7
  %69 = icmp ne i64 %68, 0
  %or.cond.i = and i1 %.not.i10, %69
  br i1 %or.cond.i, label %.lr.ph.i9, label %.critedge.preheader.i, !llvm.loop !8

.lr.ph27.i:                                       ; preds = %.critedge.preheader.i, %.critedge.i
  %.026.i = phi i64 [ %73, %.critedge.i ], [ %58, %.critedge.preheader.i ]
  %70 = add nsw i64 %.026.i, 1
  %71 = and i64 %70, -9223372036854775801
  %72 = icmp sgt i64 %71, 0
  br i1 %72, label %.critedge.i, label %.critedge2.i

.critedge.i:                                      ; preds = %.lr.ph27.i
  %73 = add nsw i64 %.026.i, -1
  %74 = and i64 %.026.i, 63
  %75 = shl nuw i64 1, %74
  %76 = xor i64 %75, -1
  %77 = ashr i64 %.026.i, 6
  %gep24.i = getelementptr i64, ptr %invariant.gep.i, i64 %77
  %78 = load i64, ptr %gep24.i, align 8
  %79 = and i64 %78, %76
  store i64 %79, ptr %gep24.i, align 8
  %.not18.not.i = icmp sgt i64 %.026.i, %.017.lcssa.i
  br i1 %.not18.not.i, label %.lr.ph27.i, label %.critedge2.i, !llvm.loop !11

.critedge2.i:                                     ; preds = %.critedge.i, %.lr.ph27.i, %.critedge.preheader.i
  %.0.lcssa.i = phi i64 [ %58, %.critedge.preheader.i ], [ %.026.i, %.lr.ph27.i ], [ %73, %.critedge.i ]
  %80 = icmp sgt i64 %.0.lcssa.i, %.017.lcssa.i
  br i1 %80, label %81, label %bit_nclear.exit

81:                                               ; preds = %.critedge2.i
  %82 = ashr i64 %.017.lcssa.i, 3
  %83 = getelementptr inbounds i8, ptr %invariant.gep.i, i64 %82
  %reass.sub = sub i64 %.0.lcssa.i, %.017.lcssa.i
  %84 = add i64 %reass.sub, 1
  %85 = sdiv i64 %84, 8
  tail call void @llvm.memset.p0.i64(ptr nonnull align 1 %83, i8 0, i64 %85, i1 false)
  br label %bit_nclear.exit

bit_nclear.exit:                                  ; preds = %4, %._crit_edge.i, %2, %81, %.critedge2.i, %bit_nth_set.exit
  ret void
}